; Function Attrs: mustprogress nounwind uwtable
define internal void @_ZN12_GLOBAL__N_112LoopPromoterD0Ev(ptr noundef nonnull align 8 dereferenceable(152) %0) unnamed_addr #0 align 2 {
  store ptr getelementptr inbounds inrange(-16, 64) (i8, ptr @_ZTVN12_GLOBAL__N_112LoopPromoterE, i64 16), ptr %0, align 8
  %2 = getelementptr inbounds nuw i8, ptr %0, i64 72
  %3 = load ptr, ptr %2, align 8
  %.not.i.i.i.i.i = icmp eq ptr %3, null
  br i1 %.not.i.i.i.i.i, label %_ZN12_GLOBAL__N_112LoopPromoterD2Ev.exit, label %4

4:                                                ; preds = %1
  tail call void @_ZN4llvm16MetadataTracking7untrackEPvRNS_8MetadataE(ptr noundef nonnull %2, ptr noundef nonnull align 4 dereferenceable(8) %3) #21
  br label %_ZN12_GLOBAL__N_112LoopPromoterD2Ev.exit

_ZN12_GLOBAL__N_112LoopPromoterD2Ev.exit:         ; preds = %1, %4
  tail call void @_ZdlPvm(ptr noundef nonnull %0, i64 noundef 152) #23
  ret void
}